target datalayout = "e-m:e-p270:32:32-p271:32:32-p272:64:64-i64:64-i128:128-f80:128-n8:16:32:64-S128"
target triple = "x86_64-pc-linux-gnu"

@.str.146 = private unnamed_addr constant [11 x i8] c"\\U%02x%02x\00", align 1

; Function Attrs: null_pointer_is_valid sspstrong uwtable
define internal void @parse_unicode(ptr noundef %0, ptr noundef %1, i32 noundef %2, i32 noundef %3) #0 {
  %5 = alloca ptr, align 8
  %6 = alloca ptr, align 8
  %7 = alloca i32, align 4
  %8 = alloca i32, align 4
  %9 = alloca ptr, align 8
  %10 = alloca i8, align 1
  %11 = alloca i8, align 1
  store ptr %0, ptr %5, align 8
  store ptr %1, ptr %6, align 8
  store i32 %2, ptr %7, align 4
  store i32 %3, ptr %8, align 4
  call void @llvm.lifetime.start.p0(i64 8, ptr %9) #10
  %12 = load ptr, ptr %5, align 8
  %13 = load i32, ptr %8, align 4
  %14 = zext i32 %13 to i64
  %15 = getelementptr i8, ptr %12, i64 %14
  store ptr %15, ptr %9, align 8
  call void @llvm.lifetime.start.p0(i64 1, ptr %10) #10
  call void @llvm.lifetime.start.p0(i64 1, ptr %11) #10
  br label %16

16:                                               ; preds = %20, %4
  %17 = load ptr, ptr %5, align 8
  %18 = load ptr, ptr %9, align 8
  %19 = icmp ult ptr %17, %18
  br i1 %19, label %20, label %39

20:                                               ; preds = %16
  %21 = load ptr, ptr %6, align 8
  %22 = load i32, ptr %7, align 4
  %23 = add i32 %22, 1
  store i32 %23, ptr %7, align 4
  %24 = call zeroext i8 @tvb_get_uint8(ptr noundef %21, i32 noundef %22)
  store i8 %24, ptr %10, align 1
  %25 = load ptr, ptr %6, align 8
  %26 = load i32, ptr %7, align 4
  %27 = add i32 %26, 1
  store i32 %27, ptr %7, align 4
  %28 = call zeroext i8 @tvb_get_uint8(ptr noundef %25, i32 noundef %26)
  store i8 %28, ptr %11, align 1
  %29 = load ptr, ptr %5, align 8
  %30 = load ptr, ptr %5, align 8
  %31 = call i64 @llvm.objectsize.i64.p0(ptr %30, i1 false, i1 true, i1 true)
  %32 = load i8, ptr %10, align 1
  %33 = zext i8 %32 to i32
  %34 = load i8, ptr %11, align 1
  %35 = zext i8 %34 to i32
  %36 = call i32 (ptr, i64, i32, i64, ptr, ...) @__snprintf_chk(ptr noundef %29, i64 noundef 7, i32 noundef 2, i64 noundef %31, ptr noundef @.str.146, i32 noundef %33, i32 noundef %35)
  %37 = load ptr, ptr %5, align 8
  %38 = getelementptr i8, ptr %37, i64 6
  store ptr %38, ptr %5, align 8
  br label %16, !llvm.loop !18

39:                                               ; preds = %16
  call void @llvm.lifetime.end.p0(i64 1, ptr %11) #10
  call void @llvm.lifetime.end.p0(i64 1, ptr %10) #10
  call void @llvm.lifetime.end.p0(i64 8, ptr %9) #10
  ret void
}