; Function Attrs: null_pointer_is_valid sspstrong uwtable
define internal void @parse_unicode(ptr noundef %0, ptr noundef %1, i32 noundef %2, i32 noundef %3) #0 {
  %5 = zext i32 %3 to i64
  %6 = getelementptr i8, ptr %0, i64 %5
  %7 = icmp ult ptr %0, %6
  br i1 %7, label %.lr.ph, label %._crit_edge

.lr.ph:                                           ; preds = %4, %.lr.ph
  %.014 = phi ptr [ %15, %.lr.ph ], [ %0, %4 ]
  %.01213 = phi i32 [ %10, %.lr.ph ], [ %2, %4 ]
  %8 = add i32 %.01213, 1
  %9 = tail call zeroext i8 @tvb_get_uint8(ptr noundef %1, i32 noundef %.01213)
  %10 = add i32 %.01213, 2
  %11 = tail call zeroext i8 @tvb_get_uint8(ptr noundef %1, i32 noundef %8)
  %12 = zext i8 %9 to i32
  %13 = zext i8 %11 to i32
  %14 = tail call i32 (ptr, i64, i32, i64, ptr, ...) @__snprintf_chk(ptr noundef %.014, i64 noundef 7, i32 noundef 2, i64 noundef -1, ptr noundef nonnull @.str.146, i32 noundef %12, i32 noundef %13)
  %15 = getelementptr i8, ptr %.014, i64 6
  %16 = icmp ult ptr %15, %6
  br i1 %16, label %.lr.ph, label %._crit_edge, !llvm.loop !20

._crit_edge:                                      ; preds = %.lr.ph, %4
  ret void
}